target datalayout = "e-m:e-p270:32:32-p271:32:32-p272:64:64-i64:64-i128:128-f80:128-n8:16:32:64-S128"
target triple = "x86_64-pc-linux-gnu"

@.str = private unnamed_addr constant [2 x i8] c" \00", align 1

; Function Attrs: inlinehint nounwind uwtable
define internal ptr @Abc_UtilStrsav(ptr noundef %0) #5 {
  %2 = alloca ptr, align 8
  store ptr %0, ptr %2, align 8, !tbaa !8
  %3 = load ptr, ptr %2, align 8, !tbaa !8
  %4 = icmp ne ptr %3, null
  br i1 %4, label %5, label %13

5:                                                ; preds = %1
  %6 = load ptr, ptr %2, align 8, !tbaa !8
  %7 = call i64 @strlen(ptr noundef %6) #11
  %8 = add i64 %7, 1
  %9 = mul i64 1, %8
  %10 = call noalias ptr @malloc(i64 noundef %9) #12
  %11 = load ptr, ptr %2, align 8, !tbaa !8
  %12 = call ptr @strcpy(ptr noundef %10, ptr noundef %11) #10
  br label %14

13:                                               ; preds = %1
  br label %14

14:                                               ; preds = %13, %5
  %15 = phi ptr [ %12, %5 ], [ null, %13 ]
  ret ptr %15
}

; Function Attrs: nounwind uwtable
define i32 @Mio_GateCollectNames(ptr noundef %0, ptr noundef %1) #0 {
  %3 = alloca ptr, align 8
  %4 = alloca ptr, align 8
  %5 = alloca ptr, align 8
  %6 = alloca ptr, align 8
  %7 = alloca i32, align 4
  %8 = alloca i32, align 4
  store ptr %0, ptr %3, align 8, !tbaa !8
  store ptr %1, ptr %4, align 8, !tbaa !10
  call void @llvm.lifetime.start.p0(i64 8, ptr %5) #10
  call void @llvm.lifetime.start.p0(i64 8, ptr %6) #10
  call void @llvm.lifetime.start.p0(i64 4, ptr %7) #10
  call void @llvm.lifetime.start.p0(i64 4, ptr %8) #10
  %9 = load ptr, ptr %3, align 8, !tbaa !8
  %10 = call ptr @Abc_UtilStrsav(ptr noundef %9)
  store ptr %10, ptr %5, align 8, !tbaa !8
  %11 = load ptr, ptr %5, align 8, !tbaa !8
  store ptr %11, ptr %6, align 8, !tbaa !8
  br label %12

12:                                               ; preds = %64, %2
  %13 = load ptr, ptr %6, align 8, !tbaa !8
  %14 = load i8, ptr %13, align 1, !tbaa !12
  %15 = icmp ne i8 %14, 0
  br i1 %15, label %16, label %67

16:                                               ; preds = %12
  %17 = load ptr, ptr %6, align 8, !tbaa !8
  %18 = load i8, ptr %17, align 1, !tbaa !12
  %19 = sext i8 %18 to i32
  %20 = icmp eq i32 %19, 42
  br i1 %20, label %61, label %21

21:                                               ; preds = %16
  %22 = load ptr, ptr %6, align 8, !tbaa !8
  %23 = load i8, ptr %22, align 1, !tbaa !12
  %24 = sext i8 %23 to i32
  %25 = icmp eq i32 %24, 38
  br i1 %25, label %61, label %26

26:                                               ; preds = %21
  %27 = load ptr, ptr %6, align 8, !tbaa !8
  %28 = load i8, ptr %27, align 1, !tbaa !12
  %29 = sext i8 %28 to i32
  %30 = icmp eq i32 %29, 43
  br i1 %30, label %61, label %31

31:                                               ; preds = %26
  %32 = load ptr, ptr %6, align 8, !tbaa !8
  %33 = load i8, ptr %32, align 1, !tbaa !12
  %34 = sext i8 %33 to i32
  %35 = icmp eq i32 %34, 124
  br i1 %35, label %61, label %36

36:                                               ; preds = %31
  %37 = load ptr, ptr %6, align 8, !tbaa !8
  %38 = load i8, ptr %37, align 1, !tbaa !12
  %39 = sext i8 %38 to i32
  %40 = icmp eq i32 %39, 94
  br i1 %40, label %61, label %41

41:                                               ; preds = %36
  %42 = load ptr, ptr %6, align 8, !tbaa !8
  %43 = load i8, ptr %42, align 1, !tbaa !12
  %44 = sext i8 %43 to i32
  %45 = icmp eq i32 %44, 33
  br i1 %45, label %61, label %46

46:                                               ; preds = %41
  %47 = load ptr, ptr %6, align 8, !tbaa !8
  %48 = load i8, ptr %47, align 1, !tbaa !12
  %49 = sext i8 %48 to i32
  %50 = icmp eq i32 %49, 39
  br i1 %50, label %61, label %51

51:                                               ; preds = %46
  %52 = load ptr, ptr %6, align 8, !tbaa !8
  %53 = load i8, ptr %52, align 1, !tbaa !12
  %54 = sext i8 %53 to i32
  %55 = icmp eq i32 %54, 40
  br i1 %55, label %61, label %56

56:                                               ; preds = %51
  %57 = load ptr, ptr %6, align 8, !tbaa !8
  %58 = load i8, ptr %57, align 1, !tbaa !12
  %59 = sext i8 %58 to i32
  %60 = icmp eq i32 %59, 41
  br i1 %60, label %61, label %63

61:                                               ; preds = %56, %51, %46, %41, %36, %31, %26, %21, %16
  %62 = load ptr, ptr %6, align 8, !tbaa !8
  store i8 32, ptr %62, align 1, !tbaa !12
  br label %63

63:                                               ; preds = %61, %56
  br label %64

64:                                               ; preds = %63
  %65 = load ptr, ptr %6, align 8, !tbaa !8
  %66 = getelementptr inbounds nuw i8, ptr %65, i32 1
  store ptr %66, ptr %6, align 8, !tbaa !8
  br label %12, !llvm.loop !13

67:                                               ; preds = %12
  store i32 0, ptr %7, align 4, !tbaa !15
  %68 = load ptr, ptr %5, align 8, !tbaa !8
  %69 = call ptr @strtok(ptr noundef %68, ptr noundef @.str) #10
  store ptr %69, ptr %6, align 8, !tbaa !8
  br label %70

70:                                               ; preds = %104, %67
  %71 = load ptr, ptr %6, align 8, !tbaa !8
  %72 = icmp ne ptr %71, null
  br i1 %72, label %73, label %106

73:                                               ; preds = %70
  store i32 0, ptr %8, align 4, !tbaa !15
  br label %74

74:                                               ; preds = %89, %73
  %75 = load i32, ptr %8, align 4, !tbaa !15
  %76 = load i32, ptr %7, align 4, !tbaa !15
  %77 = icmp slt i32 %75, %76
  br i1 %77, label %78, label %92

78:                                               ; preds = %74
  %79 = load ptr, ptr %6, align 8, !tbaa !8
  %80 = load ptr, ptr %4, align 8, !tbaa !10
  %81 = load i32, ptr %8, align 4, !tbaa !15
  %82 = sext i32 %81 to i64
  %83 = getelementptr inbounds ptr, ptr %80, i64 %82
  %84 = load ptr, ptr %83, align 8, !tbaa !8
  %85 = call i32 @strcmp(ptr noundef %79, ptr noundef %84) #11
  %86 = icmp eq i32 %85, 0
  br i1 %86, label %87, label %88

87:                                               ; preds = %78
  br label %92

88:                                               ; preds = %78
  br label %89

89:                                               ; preds = %88
  %90 = load i32, ptr %8, align 4, !tbaa !15
  %91 = add nsw i32 %90, 1
  store i32 %91, ptr %8, align 4, !tbaa !15
  br label %74, !llvm.loop !17

92:                                               ; preds = %87, %74
  %93 = load i32, ptr %8, align 4, !tbaa !15
  %94 = load i32, ptr %7, align 4, !tbaa !15
  %95 = icmp eq i32 %93, %94
  br i1 %95, label %96, label %104

96:                                               ; preds = %92
  %97 = load ptr, ptr %6, align 8, !tbaa !8
  %98 = call ptr @Abc_UtilStrsav(ptr noundef %97)
  %99 = load ptr, ptr %4, align 8, !tbaa !10
  %100 = load i32, ptr %7, align 4, !tbaa !15
  %101 = add nsw i32 %100, 1
  store i32 %101, ptr %7, align 4, !tbaa !15
  %102 = sext i32 %100 to i64
  %103 = getelementptr inbounds ptr, ptr %99, i64 %102
  store ptr %98, ptr %103, align 8, !tbaa !8
  br label %104

104:                                              ; preds = %96, %92
  %105 = call ptr @strtok(ptr noundef null, ptr noundef @.str) #10
  store ptr %105, ptr %6, align 8, !tbaa !8
  br label %70, !llvm.loop !18

106:                                              ; preds = %70
  %107 = load ptr, ptr %5, align 8, !tbaa !8
  %108 = icmp ne ptr %107, null
  br i1 %108, label %109, label %111

109:                                              ; preds = %106
  %110 = load ptr, ptr %5, align 8, !tbaa !8
  call void @free(ptr noundef %110) #10
  store ptr null, ptr %5, align 8, !tbaa !8
  br label %112

111:                                              ; preds = %106
  br label %112

112:                                              ; preds = %111, %109
  %113 = load i32, ptr %7, align 4, !tbaa !15
  call void @llvm.lifetime.end.p0(i64 4, ptr %8) #10
  call void @llvm.lifetime.end.p0(i64 4, ptr %7) #10
  call void @llvm.lifetime.end.p0(i64 8, ptr %6) #10
  call void @llvm.lifetime.end.p0(i64 8, ptr %5) #10
  ret i32 %113
}