; Function Attrs: nounwind uwtable
define i32 @Mio_GateCollectNames(ptr noundef readonly %0, ptr noundef captures(none) %1) local_unnamed_addr #0 {
  %.not.i = icmp eq ptr %0, null
  br i1 %.not.i, label %Abc_UtilStrsav.exit, label %3

3:                                                ; preds = %2
  %4 = tail call i64 @strlen(ptr noundef nonnull readonly dereferenceable(1) %0) #11
  %5 = add i64 %4, 1
  %6 = tail call noalias ptr @malloc(i64 noundef %5) #13
  %7 = tail call ptr @strcpy(ptr noundef nonnull dereferenceable(1) %6, ptr noundef nonnull readonly dereferenceable(1) %0) #12
  br label %Abc_UtilStrsav.exit

Abc_UtilStrsav.exit:                              ; preds = %2, %3
  %8 = phi ptr [ %6, %3 ], [ null, %2 ]
  br label %9

9:                                                ; preds = %12, %Abc_UtilStrsav.exit
  %.030 = phi ptr [ %8, %Abc_UtilStrsav.exit ], [ %13, %12 ]
  %10 = load i8, ptr %.030, align 1, !tbaa !3
  switch i8 %10, label %12 [
    i8 0, label %14
    i8 42, label %11
    i8 38, label %11
    i8 43, label %11
    i8 124, label %11
    i8 94, label %11
    i8 33, label %11
    i8 39, label %11
    i8 40, label %11
    i8 41, label %11
  ]

11:                                               ; preds = %9, %9, %9, %9, %9, %9, %9, %9, %9
  store i8 32, ptr %.030, align 1, !tbaa !3
  br label %12

12:                                               ; preds = %9, %11
  %13 = getelementptr inbounds nuw i8, ptr %.030, i64 1
  br label %9, !llvm.loop !6

14:                                               ; preds = %9
  %15 = tail call ptr @strtok(ptr noundef %8, ptr noundef nonnull @.str) #12
  %.not3542 = icmp eq ptr %15, null
  br i1 %.not3542, label %._crit_edge45, label %.preheader

.preheader:                                       ; preds = %14, %31
  %.02944 = phi i32 [ %.1, %31 ], [ 0, %14 ]
  %.13143 = phi ptr [ %32, %31 ], [ %15, %14 ]
  %16 = icmp sgt i32 %.02944, 0
  br i1 %16, label %.lr.ph.preheader, label %._crit_edge

.lr.ph.preheader:                                 ; preds = %.preheader
  %wide.trip.count = zext nneg i32 %.02944 to i64
  br label %.lr.ph

.lr.ph:                                           ; preds = %.lr.ph.preheader, %21
  %indvars.iv = phi i64 [ 0, %.lr.ph.preheader ], [ %indvars.iv.next, %21 ]
  %17 = getelementptr inbounds nuw ptr, ptr %1, i64 %indvars.iv
  %18 = load ptr, ptr %17, align 8, !tbaa !8
  %19 = tail call i32 @strcmp(ptr noundef nonnull dereferenceable(1) %.13143, ptr noundef nonnull dereferenceable(1) %18) #11
  %20 = icmp eq i32 %19, 0
  br i1 %20, label %._crit_edge.loopexit, label %21

21:                                               ; preds = %.lr.ph
  %indvars.iv.next = add nuw nsw i64 %indvars.iv, 1
  %exitcond.not = icmp eq i64 %indvars.iv.next, %wide.trip.count
  br i1 %exitcond.not, label %Abc_UtilStrsav.exit38, label %.lr.ph, !llvm.loop !11

._crit_edge.loopexit:                             ; preds = %.lr.ph
  %22 = trunc nuw nsw i64 %indvars.iv to i32
  br label %._crit_edge

._crit_edge:                                      ; preds = %._crit_edge.loopexit, %.preheader
  %.0.lcssa = phi i32 [ 0, %.preheader ], [ %22, %._crit_edge.loopexit ]
  %23 = icmp eq i32 %.0.lcssa, %.02944
  br i1 %23, label %Abc_UtilStrsav.exit38, label %31

Abc_UtilStrsav.exit38:                            ; preds = %21, %._crit_edge
  %24 = tail call i64 @strlen(ptr noundef nonnull readonly dereferenceable(1) %.13143) #11
  %25 = add i64 %24, 1
  %26 = tail call noalias ptr @malloc(i64 noundef %25) #13
  %27 = tail call ptr @strcpy(ptr noundef nonnull dereferenceable(1) %26, ptr noundef nonnull readonly dereferenceable(1) %.13143) #12
  %28 = add nsw i32 %.02944, 1
  %29 = sext i32 %.02944 to i64
  %30 = getelementptr inbounds ptr, ptr %1, i64 %29
  store ptr %26, ptr %30, align 8, !tbaa !8
  br label %31

31:                                               ; preds = %Abc_UtilStrsav.exit38, %._crit_edge
  %.1 = phi i32 [ %28, %Abc_UtilStrsav.exit38 ], [ %.02944, %._crit_edge ]
  %32 = tail call ptr @strtok(ptr noundef null, ptr noundef nonnull @.str) #12
  %.not35 = icmp eq ptr %32, null
  br i1 %.not35, label %._crit_edge45, label %.preheader, !llvm.loop !12

._crit_edge45:                                    ; preds = %31, %14
  %.029.lcssa = phi i32 [ 0, %14 ], [ %.1, %31 ]
  %.not36 = icmp eq ptr %8, null
  br i1 %.not36, label %34, label %33

33:                                               ; preds = %._crit_edge45
  tail call void @free(ptr noundef nonnull %8) #12
  br label %34

34:                                               ; preds = %._crit_edge45, %33
  ret i32 %.029.lcssa
}